Certificate:
    Data:
        Version: 3 (0x2)
        Serial Number: 6 (0x6)
    Signature Algorithm: sha1WithRSAEncryption
        Issuer: C=CN, ST=BJ, L=BJ, O=Cookie, OU=Cookie, CN=darcy/emailAddress=zhangwei_cs@qq.com
        Validity
            Not Before: Jan  5 22:02:55 2014 GMT
            Not After : Jan  5 22:02:55 2015 GMT
        Subject: C=CN, ST=BJ, O=Cookie, OU=Cookie, CN=darcyaaa/emailAddress=darcyaaa@test.com
        Subject Public Key Info:
            Public Key Algorithm: rsaEncryption
                Public-Key: (2048 bit)
                Modulus:
                    00:b4:64:40:40:78:6b:4d:1c:23:e7:20:62:79:76:
                    ba:b7:00:35:b6:cc:e9:d0:4d:0e:43:7d:28:ee:e9:
                    96:70:f8:5e:68:e6:d4:db:b3:f7:48:4a:7f:ef:9b:
                    82:e8:5e:8d:df:f7:0c:5a:a2:8a:81:9e:f0:ae:19:
                    01:bb:bd:0b:a5:5b:5a:b3:47:8f:6d:ab:9e:51:c4:
                    b0:13:f4:30:ec:56:23:60:27:b7:fc:85:fa:f4:3a:
                    4d:37:11:42:7d:f5:a1:de:ef:df:82:65:ac:86:ac:
                    82:17:ac:b2:58:97:0e:4d:5a:9f:d2:58:82:b3:07:
                    f2:fa:76:f9:f6:f1:de:44:50:24:ef:6c:ef:2f:a1:
                    fb:77:52:ff:b4:cc:66:9b:ba:e7:bc:df:e4:3e:1f:
                    00:7b:6a:3f:c8:a1:96:1c:52:e1:be:cc:fb:b1:68:
                    94:38:2a:06:4b:fb:0d:6d:93:78:d4:a1:2d:6a:2d:
                    b6:69:47:19:f6:d2:87:bd:af:2c:db:69:74:43:15:
                    29:39:0c:86:ab:5a:79:81:f7:7b:25:15:ad:4e:db:
                    d9:28:72:9b:ed:b4:e9:e8:cf:37:ff:b3:95:27:7e:
                    18:09:50:8c:23:99:f6:c2:10:a4:c9:c8:21:db:38:
                    be:66:76:49:53:7a:55:1a:7a:af:38:43:fa:e0:d0:
                    09:c7
                Exponent: 65537 (0x10001)
        X509v3 extensions:
            X509v3 Basic Constraints: 
                CA:FALSE
            Netscape Comment: 
                OpenSSL Generated Certificate
            X509v3 Subject Key Identifier: 
                28:46:58:0C:2C:D8:B9:AA:F7:BE:DC:6D:98:F0:BE:8E:9B:5E:F9:FE
            X509v3 Authority Key Identifier: 
                keyid:A1:F4:09:07:D6:84:C8:E0:D2:9F:6C:D8:75:74:8C:16:C4:D0:9B:12

    Signature Algorithm: sha1WithRSAEncryption
         ac:f1:a4:40:a1:48:0b:82:ba:68:26:57:d5:27:8a:67:f6:e1:
         59:f0:8c:12:70:08:29:fc:0f:b2:48:22:7f:40:f9:30:25:fb:
         f3:3d:54:91:a6:bc:01:a1:46:7e:57:2b:7e:bb:b0:0e:12:cc:
         2b:af:b2:67:eb:cf:d5:fe:28:f7:f5:2d:6f:ad:5f:1b:43:94:
         65:12:de:91:8f:9c:48:15:37:14:9b:bf:46:44:08:bf:1e:90:
         16:5c:cc:fa:db:a2:2b:95:06:4c:65:cf:69:d4:16:b7:28:96:
         8d:43:c7:99:b2:77:02:84:95:80:48:5e:43:93:2a:a4:db:59:
         b4:88:76:4c:a1:7e:8f:85:47:eb:7c:6d:6c:e2:29:8c:5e:c1:
         62:5c:2f:c1:9f:44:e2:a4:46:46:56:fe:ed:40:bf:e6:d2:71:
         24:63:e0:9f:ac:6e:ce:da:b1:09:0e:a0:01:16:65:38:30:dc:
         a3:ea:b3:9a:2f:c5:36:ce:df:63:ac:6a:3b:c0:ac:1b:42:9a:
         79:b7:3c:30:3e:9e:ac:68:fc:8c:a2:35:28:f8:62:69:51:b3:
         84:e1:96:7b:f7:b4:b7:da:03:14:42:19:0f:28:96:5b:3c:17:
         f5:39:7c:6a:ed:d9:07:6b:a9:c3:9a:c6:66:d5:f9:c4:58:60:
         c5:43:be:f4
-----BEGIN CERTIFICATE-----
MIID4zCCAsugAwIBAgIBBjANBgkqhkiG9w0BAQUFADB8MQswCQYDVQQGEwJDTjEL
MAkGA1UECAwCQkoxCzAJBgNVBAcMAkJKMQ8wDQYDVQQKDAZDb29raWUxDzANBgNV
BAsMBkNvb2tpZTEOMAwGA1UEAwwFZGFyY3kxITAfBgkqhkiG9w0BCQEWEnpoYW5n
d2VpX2NzQHFxLmNvbTAeFw0xNDAxMDUyMjAyNTVaFw0xNTAxMDUyMjAyNTVaMHEx
CzAJBgNVBAYTAkNOMQswCQYDVQQIDAJCSjEPMA0GA1UECgwGQ29va2llMQ8wDQYD
VQQLDAZDb29raWUxETAPBgNVBAMMCGRhcmN5YWFhMSAwHgYJKoZIhvcNAQkBFhFk
YXJjeWFhYUB0ZXN0LmNvbTCCASIwDQYJKoZIhvcNAQEBBQADggEPADCCAQoCggEB
ALRkQEB4a00cI+cgYnl2urcANbbM6dBNDkN9KO7plnD4Xmjm1Nuz90hKf++bguhe
jd/3DFqiioGe8K4ZAbu9C6VbWrNHj22rnlHEsBP0MOxWI2Ant/yF+vQ6TTcRQn31
od7v34JlrIasghessliXDk1an9JYgrMH8vp2+fbx3kRQJO9s7y+h+3dS/7TMZpu6
57zf5D4fAHtqP8ihlhxS4b7M+7FolDgqBkv7DW2TeNShLWottmlHGfbSh72vLNtp
dEMVKTkMhqtaeYH3eyUVrU7b2Shym+206ejPN/+zlSd+GAlQjCOZ9sIQpMnIIds4
vmZ2SVN6VRp6rzhD+uDQCccCAwEAAaN7MHkwCQYDVR0TBAIwADAsBglghkgBhvhC
AQ0EHxYdT3BlblNTTCBHZW5lcmF0ZWQgQ2VydGlmaWNhdGUwHQYDVR0OBBYEFChG
WAws2Lmq977cbZjwvo6bXvn+MB8GA1UdIwQYMBaAFKH0CQfWhMjg0p9s2HV0jBbE
0JsSMA0GCSqGSIb3DQEBBQUAA4IBAQCs8aRAoUgLgrpoJlfVJ4pn9uFZ8IwScAgp
/A+ySCJ/QPkwJfvzPVSRprwBoUZ+Vyt+u7AOEswrr7Jn68/V/ij39S1vrV8bQ5Rl
Et6Rj5xIFTcUm79GRAi/HpAWXMz626IrlQZMZc9p1Ba3KJaNQ8eZsncChJWASF5D
kyqk21m0iHZMoX6PhUfrfG1s4imMXsFiXC/Bn0TipEZGVv7tQL/m0nEkY+CfrG7O
2rEJDqABFmU4MNyj6rOaL8U2zt9jrGo7wKwbQpp5tzwwPp6saPyMojUo+GJpUbOE
4ZZ797S32gMUQhkPKJZbPBf1OXxq7dkHa6nDmsZm1fnEWGDFQ770
-----END CERTIFICATE-----
