Certificate:
    Data:
        Version: 3 (0x2)
        Serial Number: 3 (0x3)
    Signature Algorithm: sha1WithRSAEncryption
        Issuer: C=CN, ST=BJ, L=BJ, O=Cookie, OU=Cookie, CN=darcy/emailAddress=zhangwei_cs@qq.com
        Validity
            Not Before: Dec 28 12:52:36 2013 GMT
            Not After : Dec 28 12:52:36 2014 GMT
        Subject: C=CN, ST=BJ, O=Cookie, OU=Cookie, CN=CM/emailAddress=CM@cookie.com
        Subject Public Key Info:
            Public Key Algorithm: rsaEncryption
                Public-Key: (2048 bit)
                Modulus:
                    00:b9:49:20:4e:5f:36:70:da:d9:f9:49:06:35:17:
                    a8:20:55:8c:9e:8a:77:0b:0b:ff:c5:fd:47:c6:f5:
                    9f:89:0f:24:d8:35:2c:7f:7d:ad:0b:ef:a0:9c:3d:
                    a3:92:09:81:b3:73:75:81:69:70:70:25:bf:e1:28:
                    a0:43:54:31:a8:98:36:7b:56:b0:fe:04:3d:a7:20:
                    ab:d0:e4:3d:73:0b:a8:54:1d:e2:36:a3:1b:6b:c2:
                    21:58:24:fb:bc:be:d7:1f:34:22:61:bf:5b:18:30:
                    a8:c4:cf:57:a2:e9:eb:e9:3b:ca:a7:bb:d8:7b:5e:
                    10:e5:9b:14:6e:cf:d5:bd:dd:4b:16:d6:83:bb:5f:
                    d5:33:ef:16:59:02:17:c4:bf:d0:cd:5e:27:7a:cd:
                    4b:26:8e:f0:ff:5a:6d:6c:b9:62:58:51:e1:54:c0:
                    89:1a:83:bf:d6:79:be:4d:8f:3b:30:55:98:a7:59:
                    a6:36:04:83:55:17:95:bf:d4:54:d3:fb:05:91:cf:
                    f7:1a:ce:ff:d0:79:8d:8c:a6:96:c3:6a:5c:7e:2b:
                    86:58:1e:d7:ee:45:c0:32:8d:a0:7f:97:03:0a:02:
                    90:96:f2:9b:5a:b0:3e:c1:5a:16:d3:b7:21:20:c3:
                    1b:4e:02:8d:53:49:08:ac:df:d9:e1:c4:ec:6b:8f:
                    6d:b9
                Exponent: 65537 (0x10001)
        X509v3 extensions:
            X509v3 Basic Constraints: 
                CA:FALSE
            Netscape Comment: 
                OpenSSL Generated Certificate
            X509v3 Subject Key Identifier: 
                79:93:66:3F:DA:4D:6A:5B:C7:C9:A1:02:E8:0E:A7:A3:A4:C9:2B:61
            X509v3 Authority Key Identifier: 
                keyid:A1:F4:09:07:D6:84:C8:E0:D2:9F:6C:D8:75:74:8C:16:C4:D0:9B:12

    Signature Algorithm: sha1WithRSAEncryption
         c1:fb:44:87:5a:7e:fe:07:3a:af:05:33:cf:db:fe:b1:cf:b6:
         09:16:c8:d9:f1:6f:a9:4d:7d:8c:1b:39:4d:c0:b1:a3:91:66:
         67:06:5e:7b:31:a0:c2:6d:1e:df:ab:7e:27:d4:07:76:85:7e:
         4c:0e:96:b6:df:89:7f:90:65:df:7f:06:0d:19:88:71:e5:3b:
         c9:6f:34:86:72:8b:75:5e:4e:ca:ab:32:c9:22:61:07:26:25:
         7a:64:b0:d1:98:48:d1:35:0f:20:a8:9f:3e:0a:3d:c6:c5:a9:
         a6:64:32:08:9a:e2:c4:86:ae:3f:73:e9:2b:c6:90:ae:97:95:
         20:b8:50:19:f9:e7:af:81:a2:8f:69:a1:af:9a:2c:94:d3:4a:
         35:f2:ee:c7:eb:f7:ca:22:9e:e8:40:54:6c:d1:9e:a2:6f:6f:
         83:35:af:32:31:e3:82:f0:ba:fb:70:77:f3:40:33:a7:5c:67:
         a1:02:6a:3b:b8:c7:8a:7c:a0:be:de:36:c0:a0:77:51:c5:1c:
         6c:46:0e:92:b2:f4:c3:52:77:6a:59:36:df:54:7c:51:e2:bc:
         59:87:d3:6c:22:75:a5:7f:38:52:c0:60:31:9a:9c:0e:4c:30:
         04:2d:82:15:e6:00:97:64:74:a0:dd:33:2c:a1:75:0f:a7:08:
         3f:f6:b5:98
-----BEGIN CERTIFICATE-----
MIID2TCCAsGgAwIBAgIBAzANBgkqhkiG9w0BAQUFADB8MQswCQYDVQQGEwJDTjEL
MAkGA1UECAwCQkoxCzAJBgNVBAcMAkJKMQ8wDQYDVQQKDAZDb29raWUxDzANBgNV
BAsMBkNvb2tpZTEOMAwGA1UEAwwFZGFyY3kxITAfBgkqhkiG9w0BCQEWEnpoYW5n
d2VpX2NzQHFxLmNvbTAeFw0xMzEyMjgxMjUyMzZaFw0xNDEyMjgxMjUyMzZaMGcx
CzAJBgNVBAYTAkNOMQswCQYDVQQIDAJCSjEPMA0GA1UECgwGQ29va2llMQ8wDQYD
VQQLDAZDb29raWUxCzAJBgNVBAMMAkNNMRwwGgYJKoZIhvcNAQkBFg1DTUBjb29r
aWUuY29tMIIBIjANBgkqhkiG9w0BAQEFAAOCAQ8AMIIBCgKCAQEAuUkgTl82cNrZ
+UkGNReoIFWMnop3Cwv/xf1HxvWfiQ8k2DUsf32tC++gnD2jkgmBs3N1gWlwcCW/
4SigQ1QxqJg2e1aw/gQ9pyCr0OQ9cwuoVB3iNqMba8IhWCT7vL7XHzQiYb9bGDCo
xM9Xounr6TvKp7vYe14Q5ZsUbs/Vvd1LFtaDu1/VM+8WWQIXxL/QzV4nes1LJo7w
/1ptbLliWFHhVMCJGoO/1nm+TY87MFWYp1mmNgSDVReVv9RU0/sFkc/3Gs7/0HmN
jKaWw2pcfiuGWB7X7kXAMo2gf5cDCgKQlvKbWrA+wVoW07chIMMbTgKNU0kIrN/Z
4cTsa49tuQIDAQABo3sweTAJBgNVHRMEAjAAMCwGCWCGSAGG+EIBDQQfFh1PcGVu
U1NMIEdlbmVyYXRlZCBDZXJ0aWZpY2F0ZTAdBgNVHQ4EFgQUeZNmP9pNalvHyaEC
6A6no6TJK2EwHwYDVR0jBBgwFoAUofQJB9aEyODSn2zYdXSMFsTQmxIwDQYJKoZI
hvcNAQEFBQADggEBAMH7RIdafv4HOq8FM8/b/rHPtgkWyNnxb6lNfYwbOU3AsaOR
ZmcGXnsxoMJtHt+rfifUB3aFfkwOlrbfiX+QZd9/Bg0ZiHHlO8lvNIZyi3VeTsqr
MskiYQcmJXpksNGYSNE1DyConz4KPcbFqaZkMgia4sSGrj9z6SvGkK6XlSC4UBn5
56+Boo9poa+aLJTTSjXy7sfr98oinuhAVGzRnqJvb4M1rzIx44Lwuvtwd/NAM6dc
Z6ECaju4x4p8oL7eNsCgd1HFHGxGDpKy9MNSd2pZNt9UfFHivFmH02widaV/OFLA
YDGanA5MMAQtghXmAJdkdKDdMyyhdQ+nCD/2tZg=
-----END CERTIFICATE-----
-----BEGIN RSA PRIVATE KEY-----
MIIEpAIBAAKCAQEAuUkgTl82cNrZ+UkGNReoIFWMnop3Cwv/xf1HxvWfiQ8k2DUs
f32tC++gnD2jkgmBs3N1gWlwcCW/4SigQ1QxqJg2e1aw/gQ9pyCr0OQ9cwuoVB3i
NqMba8IhWCT7vL7XHzQiYb9bGDCoxM9Xounr6TvKp7vYe14Q5ZsUbs/Vvd1LFtaD
u1/VM+8WWQIXxL/QzV4nes1LJo7w/1ptbLliWFHhVMCJGoO/1nm+TY87MFWYp1mm
NgSDVReVv9RU0/sFkc/3Gs7/0HmNjKaWw2pcfiuGWB7X7kXAMo2gf5cDCgKQlvKb
WrA+wVoW07chIMMbTgKNU0kIrN/Z4cTsa49tuQIDAQABAoIBAFpR/lCV80jiNj1h
zofVB1zztv+Vyd/1snIGPJYNJ/69Bh3rFcz0K4XVAvsGxRSsU7BxiQdTqb7ReA6/
KhiIE0j3Ih/Pq6m30YIF2BuVFytctGqEwsAVlIlb8bsxFBH3CZCpblUt3a8WET8X
P8Ynt5tTTT+kvyusOBplFXnLEItjXx/q6/rePP+Er53EBm6x6GsGpCPDEzMv9iHF
y5Vuz3GEbvH0qM/fcr4PDWNYclNDAkh1Sdhriokzuho4thTdu0BLNny3L2e7yxJU
Nx8ysuaz//oC14ZwrXFAFdRzcsvNdYf6B63ZstQDb6Fa3xB+Qt5ibOp66fd3n72v
r1fKeQECgYEA2tcP/v+teiobChgYB3M558I2lo3yi16blRa5N0YZj+9BI9idUtFi
UWK1CdCPLc8KApM2rog8KtJyz8F4dkZwaXkf4JidsE/tOT/rBhDZu9AbWibajY9e
jA3t+B+8Rg8MJZy7MzSGTyYFde0JD3A60sRoTXamXM7pGenvLi0dMSECgYEA2L91
ZJf4xv7BqhJDj/jcjIXace9F1K+CQ+EIos8bszhai/WzuarBEy9cWDhkUzGrcdS0
+5+rCqOwMql3vr5cG5hsdzabJh0/ALZacuKEjxJRaUcMXJEMby1rAocHc0WxOoaS
iVlZfUJ6MIhcFwgRFUFic10pYwwhsPsVvKU98ZkCgYEAxKvW0mLRcyL4HgA9SCTD
+4bNLEzxl1M1G63KUuSLAJISxrZb3RwT8fR1oxZuNssEwf+vevcwq4Nqb0/+hL0V
NZUHkv9VaCjMl1DcVR07sNB8ZG7ap7IbVF8IaJ+MwqGvVvYePwyLUAJpkeuu4tMH
6nddDZD+PhYt434b2DHvNEECgYB6cdaAqHWq/TosuLqgN8doPynDmZdKaofdjuAR
EY0ldt14GaqZZcRC8UtqrxjGAtZGrRI839uBXC1qwV/bSrDACiCkTB3jrzvrTBjW
s+6M4J1LKw7psCtlFzRPrjZgQWu4k1Nu8iHi6E4c4rubazwzVMeoQmXiBXV3BLEn
6/WNaQKBgQC7BzZgeu7L38tGQW+JvVCmLv3pV2pT7XWRi7sH39NlYmJwSxLDRFmm
u9Udbkq7ehUWnzkejFPQhkj02b0Bz3rWiU0yi9eGAXOBpFbjC/5pRxGUAlukJBJo
eV0hWBSR1un2NjRay6mV69xFbuT6UBe/ijlXATW3KOmcTX4jpWYeAg==
-----END RSA PRIVATE KEY-----
