Certificate:
    Data:
        Version: 3 (0x2)
        Serial Number: 1 (0x1)
    Signature Algorithm: sha1WithRSAEncryption
        Issuer: C=CN, ST=BJ, L=BJ, O=Cookie, OU=Cookie, CN=darcy/emailAddress=zhangwei_cs@qq.com
        Validity
            Not Before: Dec 28 05:32:35 2013 GMT
            Not After : Dec 28 05:32:35 2014 GMT
        Subject: C=CN, ST=BJ, O=Cookie, OU=Cookie, CN=server/emailAddress=zhangwei198900@gmail.com
        Subject Public Key Info:
            Public Key Algorithm: rsaEncryption
                Public-Key: (2048 bit)
                Modulus:
                    00:b9:4b:ef:db:9b:c4:56:7d:eb:dd:e8:38:b9:5c:
                    b3:4d:42:90:12:e7:3f:a2:62:4c:f3:c9:17:55:91:
                    d4:41:78:95:d2:45:d0:7e:0c:16:13:c5:b3:f6:89:
                    b3:cb:0a:05:36:88:a4:22:a8:04:e1:e4:92:da:3c:
                    b0:8c:d6:69:40:47:4c:6d:48:01:0c:75:35:3c:2a:
                    f8:7f:7d:03:85:29:36:cb:37:c6:c5:3d:d8:2f:a2:
                    0a:57:67:78:90:fe:d2:81:2e:d5:e4:2e:1d:0e:b8:
                    5d:f6:8d:17:49:d9:2c:5c:99:44:93:84:61:d0:5d:
                    57:78:36:c0:d2:04:5c:9e:7a:35:77:5e:3d:ef:81:
                    87:9f:0e:bb:63:6b:6c:8e:dc:01:46:eb:53:66:f4:
                    a5:b1:d4:78:7d:9e:e4:d1:9b:94:19:f9:5b:77:3a:
                    a7:fa:c9:47:ab:8a:41:e1:9c:ea:91:76:75:b0:2e:
                    8c:02:39:9c:9e:29:4d:a6:e5:e5:ac:07:ff:66:2c:
                    e4:44:da:43:2c:c3:fd:aa:54:f1:db:22:7c:58:85:
                    50:e2:d5:69:33:f6:93:e0:4b:d6:e1:cf:96:58:fb:
                    73:62:13:c4:a9:db:dd:d2:8e:5d:a3:1c:91:97:f3:
                    c0:29:0d:7b:f6:81:28:97:74:a5:5a:67:9f:3f:40:
                    b1:43
                Exponent: 65537 (0x10001)
        X509v3 extensions:
            X509v3 Basic Constraints: 
                CA:FALSE
            Netscape Comment: 
                OpenSSL Generated Certificate
            X509v3 Subject Key Identifier: 
                1C:7D:96:D6:EA:B4:D8:2E:B6:C4:B5:9B:99:D0:54:E8:18:18:22:E1
            X509v3 Authority Key Identifier: 
                keyid:A1:F4:09:07:D6:84:C8:E0:D2:9F:6C:D8:75:74:8C:16:C4:D0:9B:12

    Signature Algorithm: sha1WithRSAEncryption
         12:3a:44:ca:58:ee:0d:96:8e:04:70:98:bd:ad:a9:11:00:a9:
         34:87:92:00:e8:ee:1f:02:43:58:0e:15:ab:fc:d2:1b:ae:bc:
         9f:fe:86:5e:e4:7b:16:15:5d:93:38:4b:7d:6e:ca:95:43:2c:
         05:7e:2c:82:d5:4a:c4:b4:6d:95:c5:98:1e:4a:d0:0c:c4:6e:
         37:c5:7d:9b:43:1e:dc:cc:2c:f8:b4:37:eb:11:56:98:97:f0:
         27:5d:33:0b:44:6f:e1:67:61:70:b0:73:b6:b4:d4:d0:3d:aa:
         44:7b:7e:e2:7c:46:51:e2:82:12:30:fa:42:b1:d9:dc:87:25:
         be:fb:02:c8:38:1c:c0:9d:8c:a5:99:84:a3:f0:90:a7:ab:a0:
         16:db:f7:9f:c7:b2:e1:5a:0a:9e:c2:b5:eb:2c:70:ad:15:da:
         27:7d:30:76:9c:be:f9:a3:cc:a0:b5:a2:79:2c:c4:46:21:ff:
         72:8e:76:19:0c:bf:67:5d:94:98:d4:86:f8:f1:39:37:7f:83:
         81:bd:fd:21:ba:44:c8:0f:78:d0:c7:f5:40:47:e9:75:7c:cc:
         a2:e7:01:bf:3c:5a:15:98:ee:c4:4d:28:cf:d7:61:0e:0b:f7:
         8d:f0:fa:47:26:29:1d:dc:1b:98:39:60:59:1a:33:d9:61:d4:
         6d:37:8f:f2
-----BEGIN CERTIFICATE-----
MIID6DCCAtCgAwIBAgIBATANBgkqhkiG9w0BAQUFADB8MQswCQYDVQQGEwJDTjEL
MAkGA1UECAwCQkoxCzAJBgNVBAcMAkJKMQ8wDQYDVQQKDAZDb29raWUxDzANBgNV
BAsMBkNvb2tpZTEOMAwGA1UEAwwFZGFyY3kxITAfBgkqhkiG9w0BCQEWEnpoYW5n
d2VpX2NzQHFxLmNvbTAeFw0xMzEyMjgwNTMyMzVaFw0xNDEyMjgwNTMyMzVaMHYx
CzAJBgNVBAYTAkNOMQswCQYDVQQIDAJCSjEPMA0GA1UECgwGQ29va2llMQ8wDQYD
VQQLDAZDb29raWUxDzANBgNVBAMMBnNlcnZlcjEnMCUGCSqGSIb3DQEJARYYemhh
bmd3ZWkxOTg5MDBAZ21haWwuY29tMIIBIjANBgkqhkiG9w0BAQEFAAOCAQ8AMIIB
CgKCAQEAuUvv25vEVn3r3eg4uVyzTUKQEuc/omJM88kXVZHUQXiV0kXQfgwWE8Wz
9omzywoFNoikIqgE4eSS2jywjNZpQEdMbUgBDHU1PCr4f30DhSk2yzfGxT3YL6IK
V2d4kP7SgS7V5C4dDrhd9o0XSdksXJlEk4Rh0F1XeDbA0gRcnno1d14974GHnw67
Y2tsjtwBRutTZvSlsdR4fZ7k0ZuUGflbdzqn+slHq4pB4ZzqkXZ1sC6MAjmcnilN
puXlrAf/ZizkRNpDLMP9qlTx2yJ8WIVQ4tVpM/aT4EvW4c+WWPtzYhPEqdvd0o5d
oxyRl/PAKQ179oEol3SlWmefP0CxQwIDAQABo3sweTAJBgNVHRMEAjAAMCwGCWCG
SAGG+EIBDQQfFh1PcGVuU1NMIEdlbmVyYXRlZCBDZXJ0aWZpY2F0ZTAdBgNVHQ4E
FgQUHH2W1uq02C62xLWbmdBU6BgYIuEwHwYDVR0jBBgwFoAUofQJB9aEyODSn2zY
dXSMFsTQmxIwDQYJKoZIhvcNAQEFBQADggEBABI6RMpY7g2WjgRwmL2tqREAqTSH
kgDo7h8CQ1gOFav80huuvJ/+hl7kexYVXZM4S31uypVDLAV+LILVSsS0bZXFmB5K
0AzEbjfFfZtDHtzMLPi0N+sRVpiX8CddMwtEb+FnYXCwc7a01NA9qkR7fuJ8RlHi
ghIw+kKx2dyHJb77Asg4HMCdjKWZhKPwkKeroBbb95/HsuFaCp7CtesscK0V2id9
MHacvvmjzKC1onksxEYh/3KOdhkMv2ddlJjUhvjxOTd/g4G9/SG6RMgPeNDH9UBH
6XV8zKLnAb88WhWY7sRNKM/XYQ4L943w+kcmKR3cG5g5YFkaM9lh1G03j/I=
-----END CERTIFICATE-----
