Certificate:
    Data:
        Version: 3 (0x2)
        Serial Number: 2 (0x2)
    Signature Algorithm: sha1WithRSAEncryption
        Issuer: C=CN, ST=BJ, L=BJ, O=Cookie, OU=Cookie, CN=darcy/emailAddress=zhangwei_cs@qq.com
        Validity
            Not Before: Dec 28 05:39:57 2013 GMT
            Not After : Dec 28 05:39:57 2014 GMT
        Subject: C=CN, ST=BJ, O=Cookie, OU=Cookie, CN=client/emailAddress=zhangwei198900@gmail.com
        Subject Public Key Info:
            Public Key Algorithm: rsaEncryption
                Public-Key: (2048 bit)
                Modulus:
                    00:ac:01:bc:95:6c:d2:34:1b:28:1f:54:93:c5:62:
                    9b:4f:c3:5e:9f:63:39:f2:c1:37:7d:6f:00:d8:d6:
                    22:d4:ad:5a:ac:fb:5a:e3:3b:f1:ee:9d:b0:3e:62:
                    4e:a3:1d:02:f2:5e:c3:88:5d:59:9d:51:70:a7:45:
                    c1:f2:de:f0:f3:1b:a4:36:0a:9d:2a:d9:37:68:4b:
                    56:1a:cf:f1:52:88:78:75:0c:b1:ea:4f:60:e1:2a:
                    1e:09:73:4a:32:50:40:ab:53:64:13:1f:d8:5f:b2:
                    04:40:3d:53:83:05:2b:9c:f7:3e:33:bc:70:30:81:
                    0c:5b:56:00:6f:b4:de:17:41:f5:11:e8:e8:9d:cb:
                    ab:b7:23:6f:15:34:96:33:a2:18:cc:72:0c:10:8a:
                    64:33:0c:ae:d7:06:83:2b:d3:e1:e2:60:f2:e3:03:
                    fe:ce:4e:f5:cd:02:07:6a:15:fa:fc:e9:4f:1b:d7:
                    fa:f6:2b:ab:82:13:bd:c2:d6:aa:ac:72:0a:26:d2:
                    50:6d:f2:d5:bf:59:e0:d2:68:57:cd:9b:e5:b9:97:
                    48:29:e5:98:a1:6a:df:68:a0:c4:c1:f3:0f:55:f1:
                    a4:61:74:c8:e9:f5:04:bc:ab:bd:44:7c:53:4a:e6:
                    92:0e:27:4d:44:0c:61:d6:6b:5d:8e:80:78:39:09:
                    d4:d9
                Exponent: 65537 (0x10001)
        X509v3 extensions:
            X509v3 Basic Constraints: 
                CA:FALSE
            Netscape Comment: 
                OpenSSL Generated Certificate
            X509v3 Subject Key Identifier: 
                F5:33:C1:0D:35:0D:48:AD:4E:41:AF:42:A7:EE:AC:10:04:28:C7:59
            X509v3 Authority Key Identifier: 
                keyid:A1:F4:09:07:D6:84:C8:E0:D2:9F:6C:D8:75:74:8C:16:C4:D0:9B:12

    Signature Algorithm: sha1WithRSAEncryption
         8a:c1:0f:c0:b8:c0:64:cb:82:fa:e3:11:7b:0a:6b:4a:2e:bf:
         8c:61:22:e8:16:fc:66:30:65:74:ca:a6:03:02:5f:27:66:53:
         0e:6e:a7:12:09:fa:dd:06:77:3a:81:11:8a:ed:bc:79:46:d2:
         30:0c:11:c4:96:24:10:da:8e:79:8a:79:e5:cd:ac:bd:05:80:
         24:60:69:f3:93:58:30:2a:50:25:2b:d7:35:62:16:5c:00:74:
         11:52:0a:ae:19:d6:81:ca:1c:c8:17:01:ad:4c:e2:be:bf:48:
         af:d7:99:7a:d2:50:4f:39:57:1f:60:1a:a2:48:38:a8:03:6b:
         18:b9:3b:b3:51:0b:a4:39:6a:cc:69:13:86:ac:94:16:86:06:
         68:e7:69:08:80:37:12:68:22:18:63:76:40:50:47:de:36:21:
         ed:9f:9b:42:0f:27:c1:b6:d8:e5:a6:ad:03:29:91:d3:2d:46:
         ae:2c:7c:2f:33:2d:1e:d4:9d:d8:11:82:54:8b:31:db:67:72:
         a2:6f:aa:8b:f1:96:64:2c:ce:70:15:c8:2e:cd:23:e6:39:8f:
         de:eb:22:8c:8e:fd:bf:58:35:d4:91:53:20:70:37:e8:2a:2d:
         f3:54:63:97:15:56:22:3d:5e:eb:6a:c9:c4:fa:43:28:3e:24:
         d6:7e:76:c4
-----BEGIN CERTIFICATE-----
MIID6DCCAtCgAwIBAgIBAjANBgkqhkiG9w0BAQUFADB8MQswCQYDVQQGEwJDTjEL
MAkGA1UECAwCQkoxCzAJBgNVBAcMAkJKMQ8wDQYDVQQKDAZDb29raWUxDzANBgNV
BAsMBkNvb2tpZTEOMAwGA1UEAwwFZGFyY3kxITAfBgkqhkiG9w0BCQEWEnpoYW5n
d2VpX2NzQHFxLmNvbTAeFw0xMzEyMjgwNTM5NTdaFw0xNDEyMjgwNTM5NTdaMHYx
CzAJBgNVBAYTAkNOMQswCQYDVQQIDAJCSjEPMA0GA1UECgwGQ29va2llMQ8wDQYD
VQQLDAZDb29raWUxDzANBgNVBAMMBmNsaWVudDEnMCUGCSqGSIb3DQEJARYYemhh
bmd3ZWkxOTg5MDBAZ21haWwuY29tMIIBIjANBgkqhkiG9w0BAQEFAAOCAQ8AMIIB
CgKCAQEArAG8lWzSNBsoH1STxWKbT8Nen2M58sE3fW8A2NYi1K1arPta4zvx7p2w
PmJOox0C8l7DiF1ZnVFwp0XB8t7w8xukNgqdKtk3aEtWGs/xUoh4dQyx6k9g4Soe
CXNKMlBAq1NkEx/YX7IEQD1TgwUrnPc+M7xwMIEMW1YAb7TeF0H1EejoncurtyNv
FTSWM6IYzHIMEIpkMwyu1waDK9Ph4mDy4wP+zk71zQIHahX6/OlPG9f69iurghO9
wtaqrHIKJtJQbfLVv1ng0mhXzZvluZdIKeWYoWrfaKDEwfMPVfGkYXTI6fUEvKu9
RHxTSuaSDidNRAxh1mtdjoB4OQnU2QIDAQABo3sweTAJBgNVHRMEAjAAMCwGCWCG
SAGG+EIBDQQfFh1PcGVuU1NMIEdlbmVyYXRlZCBDZXJ0aWZpY2F0ZTAdBgNVHQ4E
FgQU9TPBDTUNSK1OQa9Cp+6sEAQox1kwHwYDVR0jBBgwFoAUofQJB9aEyODSn2zY
dXSMFsTQmxIwDQYJKoZIhvcNAQEFBQADggEBAIrBD8C4wGTLgvrjEXsKa0ouv4xh
IugW/GYwZXTKpgMCXydmUw5upxIJ+t0GdzqBEYrtvHlG0jAMEcSWJBDajnmKeeXN
rL0FgCRgafOTWDAqUCUr1zViFlwAdBFSCq4Z1oHKHMgXAa1M4r6/SK/XmXrSUE85
Vx9gGqJIOKgDaxi5O7NRC6Q5asxpE4aslBaGBmjnaQiANxJoIhhjdkBQR942Ie2f
m0IPJ8G22OWmrQMpkdMtRq4sfC8zLR7UndgRglSLMdtncqJvqovxlmQsznAVyC7N
I+Y5j97rIoyO/b9YNdSRUyBwN+gqLfNUY5cVViI9XutqycT6Qyg+JNZ+dsQ=
-----END CERTIFICATE-----
